; Function Attrs: mustprogress uwtable
define noundef zeroext i1 @_ZNK6icu_7516DateIntervalInfoeqERKS0_(ptr noundef nonnull align 8 dereferenceable(88) %this, ptr noundef nonnull align 8 dereferenceable(88) %other) unnamed_addr #1 align 2 {
entry:
  %fFallbackIntervalPattern = getelementptr inbounds i8, ptr %this, i64 8
  %fFallbackIntervalPattern2 = getelementptr inbounds i8, ptr %other, i64 8
  %fUnion.i.i = getelementptr inbounds i8, ptr %this, i64 16
  %0 = load i16, ptr %fUnion.i.i, align 8
  %conv2.i14.i = and i16 %0, 1
  %tobool.not.i = icmp eq i16 %conv2.i14.i, 0
  br i1 %tobool.not.i, label %if.else.i, label %if.then.i

if.then.i:                                        ; preds = %entry
  %fUnion.i5.i = getelementptr inbounds i8, ptr %other, i64 16
  %1 = load i16, ptr %fUnion.i5.i, align 8
  %conv2.i615.i = and i16 %1, 1
  %tobool3.i = icmp ne i16 %conv2.i615.i, 0
  br label %_ZNK6icu_7513UnicodeStringeqERKS0_.exit

if.else.i:                                        ; preds = %entry
  %cmp.i.i.i = icmp slt i16 %0, 0
  %2 = ashr i16 %0, 5
  %shr.i.i.i = sext i16 %2 to i32
  %fLength.i.i = getelementptr inbounds i8, ptr %this, i64 20
  %3 = load i32, ptr %fLength.i.i, align 4
  %cond.i.i = select i1 %cmp.i.i.i, i32 %3, i32 %shr.i.i.i
  %fUnion.i.i7.i = getelementptr inbounds i8, ptr %other, i64 16
  %4 = load i16, ptr %fUnion.i.i7.i, align 8
  %cmp.i.i8.i = icmp slt i16 %4, 0
  %5 = ashr i16 %4, 5
  %shr.i.i9.i = sext i16 %5 to i32
  %fLength.i10.i = getelementptr inbounds i8, ptr %other, i64 20
  %6 = load i32, ptr %fLength.i10.i, align 4
  %cond.i11.i = select i1 %cmp.i.i8.i, i32 %6, i32 %shr.i.i9.i
  %conv2.i1316.i = and i16 %4, 1
  %tobool7.not.i = icmp eq i16 %conv2.i1316.i, 0
  %cmp.i = icmp eq i32 %cond.i.i, %cond.i11.i
  %or.cond.i = and i1 %tobool7.not.i, %cmp.i
  br i1 %or.cond.i, label %land.rhs.i, label %if.end

land.rhs.i:                                       ; preds = %if.else.i
  %call8.i = tail call noundef signext i8 @_ZNK6icu_7513UnicodeString8doEqualsERKS0_i(ptr noundef nonnull align 8 dereferenceable(64) %fFallbackIntervalPattern, ptr noundef nonnull align 8 dereferenceable(64) %fFallbackIntervalPattern2, i32 noundef %cond.i.i)
  %tobool9.i = icmp ne i8 %call8.i, 0
  br label %_ZNK6icu_7513UnicodeStringeqERKS0_.exit

_ZNK6icu_7513UnicodeStringeqERKS0_.exit:          ; preds = %if.then.i, %land.rhs.i
  %retval.0.i = phi i1 [ %tobool3.i, %if.then.i ], [ %tobool9.i, %land.rhs.i ]
  %fFirstDateInPtnIsLaterDate = getelementptr inbounds i8, ptr %this, i64 72
  %7 = load i8, ptr %fFirstDateInPtnIsLaterDate, align 8
  %fFirstDateInPtnIsLaterDate3 = getelementptr inbounds i8, ptr %other, i64 72
  %8 = load i8, ptr %fFirstDateInPtnIsLaterDate3, align 8
  %cmp = icmp eq i8 %7, %8
  %9 = select i1 %retval.0.i, i1 %cmp, i1 false
  br i1 %9, label %if.then, label %if.end

if.then:                                          ; preds = %_ZNK6icu_7513UnicodeStringeqERKS0_.exit
  %fIntervalPatterns = getelementptr inbounds i8, ptr %this, i64 80
  %10 = load ptr, ptr %fIntervalPatterns, align 8
  %fIntervalPatterns5 = getelementptr inbounds i8, ptr %other, i64 80
  %11 = load ptr, ptr %fIntervalPatterns5, align 8
  %12 = load ptr, ptr %10, align 8
  %13 = load ptr, ptr %11, align 8
  %call.i = tail call noundef signext i8 @uhash_equals_75(ptr noundef %12, ptr noundef %13)
  %tobool7 = icmp ne i8 %call.i, 0
  br label %if.end

if.end:                                           ; preds = %if.else.i, %if.then, %_ZNK6icu_7513UnicodeStringeqERKS0_.exit
  %equal.0.in = phi i1 [ %tobool7, %if.then ], [ false, %_ZNK6icu_7513UnicodeStringeqERKS0_.exit ], [ false, %if.else.i ]
  ret i1 %equal.0.in
}